target datalayout = "e-m:e-p270:32:32-p271:32:32-p272:64:64-i64:64-i128:128-f80:128-n8:16:32:64-S128"
target triple = "x86_64-pc-linux-gnu"

%struct.expert_field = type { i32, i32 }

@ei_reload_truncated_field = internal global %struct.expert_field zeroinitializer, align 4
@.str.40 = private unnamed_addr constant [5 x i8] c": %s\00", align 1
@.str.41 = private unnamed_addr constant [8 x i8] c"Unknown\00", align 1
@hf_reload_destination = internal global i32 0, align 4
@hf_reload_destination_compressed_id = internal global i32 0, align 4
@hf_reload_destination_type = internal global i32 0, align 4
@hf_reload_destination_data_node_id = internal global i32 0, align 4
@hf_reload_destination_data_resource_id = internal global i32 0, align 4
@hf_reload_destination_data_compressed_id = internal global i32 0, align 4
@hf_reload_length_uint8 = internal global i32 0, align 4
@ett_reload_destination = internal global i32 0, align 4
@.str.641 = private unnamed_addr constant [15 x i8] c" (Destination)\00", align 1
@.str.642 = private unnamed_addr constant [9 x i8] c": uint16\00", align 1
@.str.643 = private unnamed_addr constant [22 x i8] c"Truncated Destination\00", align 1

; Function Attrs: null_pointer_is_valid sspstrong uwtable
define internal i32 @dissect_opaque(ptr noundef %0, ptr noundef %1, ptr noundef %2, i32 noundef %3, i16 noundef zeroext %4, i16 noundef zeroext %5, i32 noundef %6) #0 {
  %8 = alloca ptr, align 8
  %9 = alloca ptr, align 8
  %10 = alloca ptr, align 8
  %11 = alloca i32, align 4
  %12 = alloca i16, align 2
  %13 = alloca i16, align 2
  %14 = alloca i32, align 4
  store ptr %0, ptr %8, align 8
  store ptr %1, ptr %9, align 8
  store ptr %2, ptr %10, align 8
  store i32 %3, ptr %11, align 4
  store i16 %4, ptr %12, align 2
  store i16 %5, ptr %13, align 2
  store i32 %6, ptr %14, align 4
  %15 = load ptr, ptr %8, align 8
  %16 = load ptr, ptr %9, align 8
  %17 = load ptr, ptr %10, align 8
  %18 = load i32, ptr %11, align 4
  %19 = load i16, ptr %12, align 2
  %20 = load i16, ptr %13, align 2
  %21 = load i32, ptr %14, align 4
  %22 = call i32 @dissect_opaque_string_or_data(ptr noundef %15, ptr noundef %16, ptr noundef %17, i32 noundef %18, i16 noundef zeroext %19, i16 noundef zeroext %20, i32 noundef %21, i1 noundef zeroext false)
  ret i32 %22
}

; Function Attrs: null_pointer_is_valid sspstrong uwtable
define internal i32 @dissect_destination(i32 noundef %0, ptr noundef %1, ptr noundef %2, ptr noundef %3, i16 noundef zeroext %4, i16 noundef zeroext %5) #0 {
  %7 = alloca i32, align 4
  %8 = alloca i32, align 4
  %9 = alloca ptr, align 8
  %10 = alloca ptr, align 8
  %11 = alloca ptr, align 8
  %12 = alloca i16, align 2
  %13 = alloca i16, align 2
  %14 = alloca i8, align 1
  %15 = alloca ptr, align 8
  %16 = alloca ptr, align 8
  %17 = alloca i8, align 1
  %18 = alloca i32, align 4
  %19 = alloca i32, align 4
  store i32 %0, ptr %8, align 4
  store ptr %1, ptr %9, align 8
  store ptr %2, ptr %10, align 8
  store ptr %3, ptr %11, align 8
  store i16 %4, ptr %12, align 2
  store i16 %5, ptr %13, align 2
  call void @llvm.lifetime.start.p0(i64 1, ptr %14) #8
  call void @llvm.lifetime.start.p0(i64 8, ptr %15) #8
  call void @llvm.lifetime.start.p0(i64 8, ptr %16) #8
  call void @llvm.lifetime.start.p0(i64 1, ptr %17) #8
  store i8 0, ptr %17, align 1
  call void @llvm.lifetime.start.p0(i64 4, ptr %18) #8
  %20 = load i32, ptr @hf_reload_destination, align 4
  store i32 %20, ptr %18, align 4
  %21 = load i32, ptr %8, align 4
  %22 = icmp sge i32 %21, 0
  br i1 %22, label %23, label %25

23:                                               ; preds = %6
  %24 = load i32, ptr %8, align 4
  store i32 %24, ptr %18, align 4
  br label %25

25:                                               ; preds = %23, %6
  %26 = load ptr, ptr %9, align 8
  %27 = load i16, ptr %12, align 2
  %28 = zext i16 %27 to i32
  %29 = call zeroext i8 @tvb_get_uint8(ptr noundef %26, i32 noundef %28)
  store i8 %29, ptr %14, align 1
  %30 = load i8, ptr %14, align 1
  %31 = zext i8 %30 to i32
  %32 = and i32 %31, 128
  %33 = icmp ne i32 %32, 0
  br i1 %33, label %34, label %57

34:                                               ; preds = %25
  %35 = load ptr, ptr %11, align 8
  %36 = load i32, ptr %18, align 4
  %37 = load ptr, ptr %9, align 8
  %38 = load i16, ptr %12, align 2
  %39 = zext i16 %38 to i32
  %40 = call ptr @proto_tree_add_item(ptr noundef %35, i32 noundef %36, ptr noundef %37, i32 noundef %39, i32 noundef 2, i32 noundef 0)
  store ptr %40, ptr %16, align 8
  %41 = load i32, ptr %18, align 4
  %42 = load i32, ptr %8, align 4
  %43 = icmp eq i32 %41, %42
  br i1 %43, label %44, label %46

44:                                               ; preds = %34
  %45 = load ptr, ptr %16, align 8
  call void (ptr, ptr, ...) @proto_item_append_text(ptr noundef %45, ptr noundef @.str.641)
  br label %46

46:                                               ; preds = %44, %34
  %47 = load ptr, ptr %16, align 8
  call void (ptr, ptr, ...) @proto_item_append_text(ptr noundef %47, ptr noundef @.str.642)
  %48 = load ptr, ptr %16, align 8
  %49 = load i32, ptr @ett_reload_destination, align 4
  %50 = call ptr @proto_item_add_subtree(ptr noundef %48, i32 noundef %49)
  store ptr %50, ptr %15, align 8
  %51 = load ptr, ptr %15, align 8
  %52 = load i32, ptr @hf_reload_destination_compressed_id, align 4
  %53 = load ptr, ptr %9, align 8
  %54 = load i16, ptr %12, align 2
  %55 = zext i16 %54 to i32
  %56 = call ptr @proto_tree_add_item(ptr noundef %51, i32 noundef %52, ptr noundef %53, i32 noundef %55, i32 noundef 2, i32 noundef 0)
  store i32 2, ptr %7, align 4
  store i32 1, ptr %19, align 4
  br label %157

57:                                               ; preds = %25
  %58 = load ptr, ptr %9, align 8
  %59 = load i16, ptr %12, align 2
  %60 = zext i16 %59 to i32
  %61 = add i32 %60, 1
  %62 = call zeroext i8 @tvb_get_uint8(ptr noundef %58, i32 noundef %61)
  store i8 %62, ptr %17, align 1
  %63 = load ptr, ptr %11, align 8
  %64 = load i32, ptr %18, align 4
  %65 = load ptr, ptr %9, align 8
  %66 = load i16, ptr %12, align 2
  %67 = zext i16 %66 to i32
  %68 = load i8, ptr %17, align 1
  %69 = zext i8 %68 to i32
  %70 = add i32 2, %69
  %71 = call ptr @proto_tree_add_item(ptr noundef %63, i32 noundef %64, ptr noundef %65, i32 noundef %67, i32 noundef %70, i32 noundef 0)
  store ptr %71, ptr %16, align 8
  %72 = load i32, ptr %18, align 4
  %73 = load i32, ptr %8, align 4
  %74 = icmp eq i32 %72, %73
  br i1 %74, label %75, label %77

75:                                               ; preds = %57
  %76 = load ptr, ptr %16, align 8
  call void (ptr, ptr, ...) @proto_item_append_text(ptr noundef %76, ptr noundef @.str.641)
  br label %77

77:                                               ; preds = %75, %57
  %78 = load ptr, ptr %16, align 8
  %79 = load i32, ptr @ett_reload_destination, align 4
  %80 = call ptr @proto_item_add_subtree(ptr noundef %78, i32 noundef %79)
  store ptr %80, ptr %15, align 8
  %81 = load ptr, ptr %16, align 8
  %82 = load i8, ptr %14, align 1
  %83 = zext i8 %82 to i32
  %84 = call ptr @val_to_str_const(i32 noundef %83, ptr noundef @destinationtypes, ptr noundef @.str.41)
  call void (ptr, ptr, ...) @proto_item_append_text(ptr noundef %81, ptr noundef @.str.40, ptr noundef %84)
  %85 = load ptr, ptr %15, align 8
  %86 = load i32, ptr @hf_reload_destination_type, align 4
  %87 = load ptr, ptr %9, align 8
  %88 = load i16, ptr %12, align 2
  %89 = zext i16 %88 to i32
  %90 = call ptr @proto_tree_add_item(ptr noundef %85, i32 noundef %86, ptr noundef %87, i32 noundef %89, i32 noundef 1, i32 noundef 0)
  %91 = load ptr, ptr %15, align 8
  %92 = load i32, ptr @hf_reload_length_uint8, align 4
  %93 = load ptr, ptr %9, align 8
  %94 = load i16, ptr %12, align 2
  %95 = zext i16 %94 to i32
  %96 = add i32 %95, 1
  %97 = load i8, ptr %17, align 1
  %98 = zext i8 %97 to i32
  %99 = call ptr @proto_tree_add_uint(ptr noundef %91, i32 noundef %92, ptr noundef %93, i32 noundef %96, i32 noundef 1, i32 noundef %98)
  %100 = load i8, ptr %17, align 1
  %101 = zext i8 %100 to i32
  %102 = add i32 2, %101
  %103 = load i16, ptr %13, align 2
  %104 = zext i16 %103 to i32
  %105 = icmp sgt i32 %102, %104
  br i1 %105, label %106, label %112

106:                                              ; preds = %77
  %107 = load ptr, ptr %10, align 8
  %108 = load ptr, ptr %16, align 8
  %109 = call ptr (ptr, ptr, ptr, ptr, ...) @expert_add_info_format(ptr noundef %107, ptr noundef %108, ptr noundef @ei_reload_truncated_field, ptr noundef @.str.643)
  %110 = load i16, ptr %13, align 2
  %111 = zext i16 %110 to i32
  store i32 %111, ptr %7, align 4
  store i32 1, ptr %19, align 4
  br label %157

112:                                              ; preds = %77
  %113 = load i8, ptr %14, align 1
  %114 = zext i8 %113 to i32
  switch i32 %114, label %151 [
    i32 1, label %115
    i32 2, label %127
    i32 3, label %139
  ]

115:                                              ; preds = %112
  %116 = load i32, ptr @hf_reload_destination_data_node_id, align 4
  %117 = load ptr, ptr %9, align 8
  %118 = load ptr, ptr %10, align 8
  %119 = load ptr, ptr %15, align 8
  %120 = load i16, ptr %12, align 2
  %121 = zext i16 %120 to i32
  %122 = add i32 %121, 2
  %123 = trunc i32 %122 to i16
  %124 = load i8, ptr %17, align 1
  %125 = zext i8 %124 to i16
  %126 = call i32 @dissect_nodeid(i32 noundef %116, ptr noundef %117, ptr noundef %118, ptr noundef %119, i16 noundef zeroext %123, i16 noundef zeroext %125)
  br label %152

127:                                              ; preds = %112
  %128 = load i32, ptr @hf_reload_destination_data_resource_id, align 4
  %129 = load ptr, ptr %9, align 8
  %130 = load ptr, ptr %10, align 8
  %131 = load ptr, ptr %15, align 8
  %132 = load i16, ptr %12, align 2
  %133 = zext i16 %132 to i32
  %134 = add i32 %133, 2
  %135 = trunc i32 %134 to i16
  %136 = load i8, ptr %17, align 1
  %137 = zext i8 %136 to i16
  %138 = call i32 @dissect_resourceid(i32 noundef %128, ptr noundef %129, ptr noundef %130, ptr noundef %131, i16 noundef zeroext %135, i16 noundef zeroext %137)
  br label %152

139:                                              ; preds = %112
  %140 = load ptr, ptr %9, align 8
  %141 = load ptr, ptr %10, align 8
  %142 = load ptr, ptr %15, align 8
  %143 = load i32, ptr @hf_reload_destination_data_compressed_id, align 4
  %144 = load i16, ptr %12, align 2
  %145 = zext i16 %144 to i32
  %146 = add i32 %145, 2
  %147 = trunc i32 %146 to i16
  %148 = load i8, ptr %17, align 1
  %149 = zext i8 %148 to i32
  %150 = call i32 @dissect_opaque(ptr noundef %140, ptr noundef %141, ptr noundef %142, i32 noundef %143, i16 noundef zeroext %147, i16 noundef zeroext 1, i32 noundef %149)
  br label %152

151:                                              ; preds = %112
  br label %152

152:                                              ; preds = %151, %139, %127, %115
  br label %153

153:                                              ; preds = %152
  %154 = load i8, ptr %17, align 1
  %155 = zext i8 %154 to i32
  %156 = add i32 2, %155
  store i32 %156, ptr %7, align 4
  store i32 1, ptr %19, align 4
  br label %157

157:                                              ; preds = %153, %106, %46
  call void @llvm.lifetime.end.p0(i64 4, ptr %18) #8
  call void @llvm.lifetime.end.p0(i64 1, ptr %17) #8
  call void @llvm.lifetime.end.p0(i64 8, ptr %16) #8
  call void @llvm.lifetime.end.p0(i64 8, ptr %15) #8
  call void @llvm.lifetime.end.p0(i64 1, ptr %14) #8
  %158 = load i32, ptr %7, align 4
  ret i32 %158
}