; Function Attrs: null_pointer_is_valid sspstrong uwtable
define internal fastcc range(i32 0, 258) i32 @dissect_destination(i32 noundef %0, ptr noundef %1, ptr noundef %2, ptr noundef %3, i16 noundef zeroext %4, i16 noundef zeroext %5) unnamed_addr #0 {
  %7 = load i32, ptr @hf_reload_destination, align 4
  %8 = icmp slt i32 %0, 0
  %spec.select = select i1 %8, i32 %7, i32 %0
  %9 = zext i16 %4 to i32
  %10 = tail call zeroext i8 @tvb_get_uint8(ptr noundef %1, i32 noundef %9)
  %11 = zext i8 %10 to i32
  %.not = icmp sgt i8 %10, -1
  br i1 %.not, label %21, label %12

12:                                               ; preds = %6
  %13 = tail call ptr @proto_tree_add_item(ptr noundef %3, i32 noundef %spec.select, ptr noundef %1, i32 noundef %9, i32 noundef 2, i32 noundef 0)
  %14 = icmp eq i32 %spec.select, %0
  br i1 %14, label %15, label %16

15:                                               ; preds = %12
  tail call void (ptr, ptr, ...) @proto_item_append_text(ptr noundef %13, ptr noundef nonnull @.str.641)
  br label %16

16:                                               ; preds = %15, %12
  tail call void (ptr, ptr, ...) @proto_item_append_text(ptr noundef %13, ptr noundef nonnull @.str.642)
  %17 = load i32, ptr @ett_reload_destination, align 4
  %18 = tail call ptr @proto_item_add_subtree(ptr noundef %13, i32 noundef %17)
  %19 = load i32, ptr @hf_reload_destination_compressed_id, align 4
  %20 = tail call ptr @proto_tree_add_item(ptr noundef %18, i32 noundef %19, ptr noundef %1, i32 noundef %9, i32 noundef 2, i32 noundef 0)
  br label %56

21:                                               ; preds = %6
  %22 = add nuw nsw i32 %9, 1
  %23 = tail call zeroext i8 @tvb_get_uint8(ptr noundef %1, i32 noundef %22)
  %24 = zext i8 %23 to i32
  %25 = add nuw nsw i32 %24, 2
  %26 = tail call ptr @proto_tree_add_item(ptr noundef %3, i32 noundef %spec.select, ptr noundef %1, i32 noundef %9, i32 noundef %25, i32 noundef 0)
  %27 = icmp eq i32 %spec.select, %0
  br i1 %27, label %28, label %29

28:                                               ; preds = %21
  tail call void (ptr, ptr, ...) @proto_item_append_text(ptr noundef %26, ptr noundef nonnull @.str.641)
  br label %29

29:                                               ; preds = %28, %21
  %30 = load i32, ptr @ett_reload_destination, align 4
  %31 = tail call ptr @proto_item_add_subtree(ptr noundef %26, i32 noundef %30)
  %32 = tail call ptr @val_to_str_const(i32 noundef %11, ptr noundef nonnull @destinationtypes, ptr noundef nonnull @.str.41)
  tail call void (ptr, ptr, ...) @proto_item_append_text(ptr noundef %26, ptr noundef nonnull @.str.40, ptr noundef %32)
  %33 = load i32, ptr @hf_reload_destination_type, align 4
  %34 = tail call ptr @proto_tree_add_item(ptr noundef %31, i32 noundef %33, ptr noundef %1, i32 noundef %9, i32 noundef 1, i32 noundef 0)
  %35 = load i32, ptr @hf_reload_length_uint8, align 4
  %36 = tail call ptr @proto_tree_add_uint(ptr noundef %31, i32 noundef %35, ptr noundef %1, i32 noundef %22, i32 noundef 1, i32 noundef %24)
  %37 = zext i16 %5 to i32
  %38 = icmp samesign ugt i32 %25, %37
  br i1 %38, label %39, label %41

39:                                               ; preds = %29
  %40 = tail call ptr (ptr, ptr, ptr, ptr, ...) @expert_add_info_format(ptr noundef %2, ptr noundef %26, ptr noundef nonnull @ei_reload_truncated_field, ptr noundef nonnull @.str.643)
  br label %56

41:                                               ; preds = %29
  switch i8 %10, label %56 [
    i8 1, label %42
    i8 2, label %47
    i8 3, label %52
  ]

42:                                               ; preds = %41
  %43 = load i32, ptr @hf_reload_destination_data_node_id, align 4
  %44 = add i16 %4, 2
  %45 = zext i8 %23 to i16
  %46 = tail call fastcc i32 @dissect_nodeid(i32 noundef %43, ptr noundef %1, ptr noundef %2, ptr noundef %31, i16 noundef zeroext %44, i16 noundef zeroext %45)
  br label %56

47:                                               ; preds = %41
  %48 = load i32, ptr @hf_reload_destination_data_resource_id, align 4
  %49 = add i16 %4, 2
  %50 = zext i8 %23 to i16
  %51 = tail call fastcc i32 @dissect_resourceid(i32 noundef %48, ptr noundef %1, ptr noundef %2, ptr noundef %31, i16 noundef zeroext %49, i16 noundef zeroext %50)
  br label %56

52:                                               ; preds = %41
  %53 = load i32, ptr @hf_reload_destination_data_compressed_id, align 4
  %54 = add i16 %4, 2
  %55 = tail call fastcc i32 @dissect_opaque_string_or_data(ptr noundef %1, ptr noundef %2, ptr noundef %31, i32 noundef %53, i16 noundef zeroext %54, i16 noundef zeroext 1, i32 noundef %24, i1 noundef zeroext false)
  br label %56

56:                                               ; preds = %41, %52, %47, %42, %39, %16
  %.059 = phi i32 [ 2, %16 ], [ %37, %39 ], [ %25, %42 ], [ %25, %47 ], [ %25, %52 ], [ %25, %41 ]
  ret i32 %.059
}